---
triple:          'arm64-apple-darwin'
binary-path:     line.exe
relocations:
  - { offsetInCU: 0x31C3, offset: 0x31C3, size: 0x8, addend: 0x0, symName: __ZNSt3__124__put_character_sequenceB7v160006IcNS_11char_traitsIcEEEERNS_13basic_ostreamIT_T0_EES7_PKS4_m, symObjAddr: 0x2C60, symBinAddr: 0x100006284, symSize: 0x1EC }
  - { offsetInCU: 0x63F8, offset: 0x63F8, size: 0x8, addend: 0x0, symName: __ZNSt3__1lsB7v160006INS_11char_traitsIcEEEERNS_13basic_ostreamIcT_EES6_PKc, symObjAddr: 0x308, symBinAddr: 0x10000392C, symSize: 0x48 }
  - { offsetInCU: 0x643E, offset: 0x643E, size: 0x8, addend: 0x0, symName: __ZNSt3__1lsB7v160006INS_11char_traitsIcEEEERNS_13basic_ostreamIcT_EES6_c, symObjAddr: 0x3B4, symBinAddr: 0x1000039D8, symSize: 0x34 }
  - { offsetInCU: 0x6484, offset: 0x6484, size: 0x8, addend: 0x0, symName: __ZNSt3__14endlB7v160006IcNS_11char_traitsIcEEEERNS_13basic_ostreamIT_T0_EES7_, symObjAddr: 0xF70, symBinAddr: 0x100004594, symSize: 0x58 }
  - { offsetInCU: 0x64C4, offset: 0x64C4, size: 0x8, addend: 0x0, symName: __ZNSt3__17getlineB7v160006IcNS_11char_traitsIcEENS_9allocatorIcEEEERNS_13basic_istreamIT_T0_EES9_RNS_12basic_stringIS6_S7_T1_EE, symObjAddr: 0xFF4, symBinAddr: 0x100004618, symSize: 0x5C }
  - { offsetInCU: 0x651C, offset: 0x651C, size: 0x8, addend: 0x0, symName: __ZNSt3__1neB7v160006IcNS_11char_traitsIcEENS_9allocatorIcEEEEbRKNS_12basic_stringIT_T0_T1_EEPKS6_, symObjAddr: 0x107C, symBinAddr: 0x1000046A0, symSize: 0x34 }
  - { offsetInCU: 0x6574, offset: 0x6574, size: 0x8, addend: 0x0, symName: __ZNSt3__1neB7v160006ERKNS_15__list_iteratorIcPvEES4_, symObjAddr: 0x1188, symBinAddr: 0x1000047AC, symSize: 0x34 }
  - { offsetInCU: 0x65B1, offset: 0x65B1, size: 0x8, addend: 0x0, symName: __ZNSt3__1eqB7v160006ERKNS_15__list_iteratorIcPvEES4_, symObjAddr: 0x12F8, symBinAddr: 0x10000491C, symSize: 0x30 }
  - { offsetInCU: 0x6621, offset: 0x6621, size: 0x8, addend: 0x0, symName: __ZNSt3__119__libcpp_deallocateB7v160006EPvmm, symObjAddr: 0x17F0, symBinAddr: 0x100004E14, symSize: 0x60 }
  - { offsetInCU: 0x6686, offset: 0x6686, size: 0x8, addend: 0x0, symName: __ZNSt3__124__is_overaligned_for_newB7v160006Em, symObjAddr: 0x1850, symBinAddr: 0x100004E74, symSize: 0x20 }
  - { offsetInCU: 0x66B4, offset: 0x66B4, size: 0x8, addend: 0x0, symName: __ZNSt3__127__do_deallocate_handle_sizeB7v160006IJSt11align_val_tEEEvPvmDpT_, symObjAddr: 0x1870, symBinAddr: 0x100004E94, symSize: 0x30 }
  - { offsetInCU: 0x6707, offset: 0x6707, size: 0x8, addend: 0x0, symName: __ZNSt3__127__do_deallocate_handle_sizeB7v160006IJEEEvPvmDpT_, symObjAddr: 0x18A0, symBinAddr: 0x100004EC4, symSize: 0x28 }
  - { offsetInCU: 0x6745, offset: 0x6745, size: 0x8, addend: 0x0, symName: __ZNSt3__124__libcpp_operator_deleteB7v160006IJPvSt11align_val_tEEEvDpT_, symObjAddr: 0x18C8, symBinAddr: 0x100004EEC, symSize: 0x2C }
  - { offsetInCU: 0x678E, offset: 0x678E, size: 0x8, addend: 0x0, symName: __ZNSt3__124__libcpp_operator_deleteB7v160006IJPvEEEvDpT_, symObjAddr: 0x18F4, symBinAddr: 0x100004F18, symSize: 0x24 }
  - { offsetInCU: 0x67E1, offset: 0x67E1, size: 0x8, addend: 0x0, symName: __ZNSt3__117__libcpp_allocateB7v160006Emm, symObjAddr: 0x1D60, symBinAddr: 0x100005384, symSize: 0x60 }
  - { offsetInCU: 0x683B, offset: 0x683B, size: 0x8, addend: 0x0, symName: __ZNSt3__121__libcpp_operator_newB7v160006IJmSt11align_val_tEEEPvDpT_, symObjAddr: 0x1DD8, symBinAddr: 0x1000053FC, symSize: 0x2C }
  - { offsetInCU: 0x6888, offset: 0x6888, size: 0x8, addend: 0x0, symName: __ZNSt3__121__libcpp_operator_newB7v160006IJmEEEPvDpT_, symObjAddr: 0x1E04, symBinAddr: 0x100005428, symSize: 0x24 }
  - { offsetInCU: 0x68C1, offset: 0x68C1, size: 0x8, addend: 0x0, symName: __ZNSt3__119__debug_db_insert_cB7v160006INS_4listIcNS_9allocatorIcEEEEEEvPT_, symObjAddr: 0x2518, symBinAddr: 0x100005B3C, symSize: 0x10 }
  - { offsetInCU: 0x68F2, offset: 0x68F2, size: 0x8, addend: 0x0, symName: __ZNSt3__119__debug_db_insert_iB7v160006INS_15__list_iteratorIcPvEEEEvPT_, symObjAddr: 0x26E4, symBinAddr: 0x100005D08, symSize: 0x10 }
  - { offsetInCU: 0x6923, offset: 0x6923, size: 0x8, addend: 0x0, symName: __ZNSt3__118__debug_db_erase_cB7v160006INS_10__list_impIcNS_9allocatorIcEEEEEEvPT_, symObjAddr: 0x29AC, symBinAddr: 0x100005FD0, symSize: 0x10 }
  - { offsetInCU: 0x6954, offset: 0x6954, size: 0x8, addend: 0x0, symName: __ZNSt3__125__debug_db_invalidate_allB7v160006INS_10__list_impIcNS_9allocatorIcEEEEEEvPT_, symObjAddr: 0x29F0, symBinAddr: 0x100006014, symSize: 0x10 }
  - { offsetInCU: 0x6985, offset: 0x6985, size: 0x8, addend: 0x0, symName: __ZNSt3__119__debug_db_insert_cB7v160006INS_12basic_stringIcNS_11char_traitsIcEENS_9allocatorIcEEEEEEvPT_, symObjAddr: 0x2B1C, symBinAddr: 0x100006140, symSize: 0x10 }
  - { offsetInCU: 0x69B6, offset: 0x69B6, size: 0x8, addend: 0x0, symName: __ZNSt3__116__pad_and_outputB7v160006IcNS_11char_traitsIcEEEENS_19ostreambuf_iteratorIT_T0_EES6_PKS4_S8_S8_RNS_8ios_baseES4_, symObjAddr: 0x2E9C, symBinAddr: 0x1000064C0, symSize: 0x240 }
  - { offsetInCU: 0x6A85, offset: 0x6A85, size: 0x8, addend: 0x0, symName: __ZNSt3__112__to_addressB7v160006IcEEPT_S2_, symObjAddr: 0x3314, symBinAddr: 0x100006938, symSize: 0x14 }
  - { offsetInCU: 0x6AED, offset: 0x6AED, size: 0x8, addend: 0x0, symName: __ZNSt3__19use_facetB7v160006INS_5ctypeIcEEEERKT_RKNS_6localeE, symObjAddr: 0x3594, symBinAddr: 0x100006BB8, symSize: 0x2C }
  - { offsetInCU: 0x6FBC, offset: 0x6FBC, size: 0x8, addend: 0x0, symName: __ZNSt3__118__constexpr_strlenB7v160006EPKc, symObjAddr: 0x362C, symBinAddr: 0x100006C50, symSize: 0x24 }
  - { offsetInCU: 0x6FE8, offset: 0x6FE8, size: 0x8, addend: 0x0, symName: __ZNSt3__17getlineB7v160006IcNS_11char_traitsIcEENS_9allocatorIcEEEERNS_13basic_istreamIT_T0_EES9_RNS_12basic_stringIS6_S7_T1_EES6_, symObjAddr: 0x36AC, symBinAddr: 0x100006CD0, symSize: 0x238 }
  - { offsetInCU: 0x7630, offset: 0x7630, size: 0x8, addend: 0x0, symName: __ZNSt3__125__debug_db_invalidate_allB7v160006INS_12basic_stringIcNS_11char_traitsIcEENS_9allocatorIcEEEEEEvPT_, symObjAddr: 0x3B74, symBinAddr: 0x100007198, symSize: 0x10 }
  - { offsetInCU: 0x784D, offset: 0x784D, size: 0x8, addend: 0x0, symName: __ZNSt3__1eqB7v160006IcNS_11char_traitsIcEENS_9allocatorIcEEEEbRKNS_12basic_stringIT_T0_T1_EEPKS6_, symObjAddr: 0x3D34, symBinAddr: 0x100007358, symSize: 0xAC }
  - { offsetInCU: 0x7947, offset: 0x7947, size: 0x8, addend: 0x0, symName: __ZSt28__throw_bad_array_new_lengthB7v160006v, symObjAddr: 0x1D2C, symBinAddr: 0x100005350, symSize: 0x34 }
  - { offsetInCU: 0x9E6B, offset: 0x9E6B, size: 0x8, addend: 0x0, symName: __Z16visualize_gapbufR6Editor, symObjAddr: 0x0, symBinAddr: 0x100003624, symSize: 0x1A0 }
  - { offsetInCU: 0xA2E9, offset: 0xA2E9, size: 0x8, addend: 0x0, symName: __ZN6Editor8backwardEv, symObjAddr: 0x1A0, symBinAddr: 0x1000037C4, symSize: 0x134 }
  - { offsetInCU: 0xA30F, offset: 0xA30F, size: 0x8, addend: 0x0, symName: __ZNK6Editor9is_at_endEv, symObjAddr: 0x2D4, symBinAddr: 0x1000038F8, symSize: 0x34 }
  - { offsetInCU: 0xA335, offset: 0xA335, size: 0x8, addend: 0x0, symName: __ZNK6Editor14data_at_cursorEv, symObjAddr: 0x350, symBinAddr: 0x100003974, symSize: 0x64 }
  - { offsetInCU: 0xA35B, offset: 0xA35B, size: 0x8, addend: 0x0, symName: __ZN6Editor7forwardEv, symObjAddr: 0x3E8, symBinAddr: 0x100003A0C, symSize: 0x118 }
  - { offsetInCU: 0xA381, offset: 0xA381, size: 0x8, addend: 0x0, symName: __ZNK6Editor7get_rowEv, symObjAddr: 0x500, symBinAddr: 0x100003B24, symSize: 0x18 }
  - { offsetInCU: 0xA3A7, offset: 0xA3A7, size: 0x8, addend: 0x0, symName: __ZNK6Editor10get_columnEv, symObjAddr: 0x518, symBinAddr: 0x100003B3C, symSize: 0x18 }
  - { offsetInCU: 0xA3CD, offset: 0xA3CD, size: 0x8, addend: 0x0, symName: __Z12process_charR6Editorc, symObjAddr: 0x530, symBinAddr: 0x100003B54, symSize: 0x208 }
  - { offsetInCU: 0xA404, offset: 0xA404, size: 0x8, addend: 0x0, symName: __ZN6Editor2upEv, symObjAddr: 0x738, symBinAddr: 0x100003D5C, symSize: 0x9C }
  - { offsetInCU: 0xA439, offset: 0xA439, size: 0x8, addend: 0x0, symName: __ZN6Editor4downEv, symObjAddr: 0x7D4, symBinAddr: 0x100003DF8, symSize: 0x94 }
  - { offsetInCU: 0xA46E, offset: 0xA46E, size: 0x8, addend: 0x0, symName: __ZN6Editor6removeEv, symObjAddr: 0x868, symBinAddr: 0x100003E8C, symSize: 0x110 }
  - { offsetInCU: 0xA494, offset: 0xA494, size: 0x8, addend: 0x0, symName: __ZN6Editor17move_to_row_startEv, symObjAddr: 0x978, symBinAddr: 0x100003F9C, symSize: 0x4C }
  - { offsetInCU: 0xA4BA, offset: 0xA4BA, size: 0x8, addend: 0x0, symName: __ZN6Editor15move_to_row_endEv, symObjAddr: 0x9C4, symBinAddr: 0x100003FE8, symSize: 0x54 }
  - { offsetInCU: 0xA4E0, offset: 0xA4E0, size: 0x8, addend: 0x0, symName: __ZN6Editor6insertEc, symObjAddr: 0xA18, symBinAddr: 0x10000403C, symSize: 0xB4 }
  - { offsetInCU: 0xA514, offset: 0xA514, size: 0x8, addend: 0x0, symName: __Z14process_stringR6EditorNSt3__112basic_stringIcNS1_11char_traitsIcEENS1_9allocatorIcEEEE, symObjAddr: 0xACC, symBinAddr: 0x1000040F0, symSize: 0xB0 }
  - { offsetInCU: 0xA578, offset: 0xA578, size: 0x8, addend: 0x0, symName: __ZNKSt3__112basic_stringIcNS_11char_traitsIcEENS_9allocatorIcEEE4sizeB7v160006Ev, symObjAddr: 0xB7C, symBinAddr: 0x1000041A0, symSize: 0x54 }
  - { offsetInCU: 0xA59E, offset: 0xA59E, size: 0x8, addend: 0x0, symName: __ZNSt3__112basic_stringIcNS_11char_traitsIcEENS_9allocatorIcEEEixB7v160006Em, symObjAddr: 0xBD0, symBinAddr: 0x1000041F4, symSize: 0x30 }
  - { offsetInCU: 0xA5D3, offset: 0xA5D3, size: 0x8, addend: 0x0, symName: __Z4testv, symObjAddr: 0xC00, symBinAddr: 0x100004224, symSize: 0x318 }
  - { offsetInCU: 0xA60E, offset: 0xA60E, size: 0x8, addend: 0x0, symName: __ZN6EditorC1Ev, symObjAddr: 0xF18, symBinAddr: 0x10000453C, symSize: 0x2C }
  - { offsetInCU: 0xA638, offset: 0xA638, size: 0x8, addend: 0x0, symName: __ZNSt3__113basic_ostreamIcNS_11char_traitsIcEEElsB7v160006EPFRS3_S4_E, symObjAddr: 0xF44, symBinAddr: 0x100004568, symSize: 0x2C }
  - { offsetInCU: 0xA66C, offset: 0xA66C, size: 0x8, addend: 0x0, symName: __ZNSt3__112basic_stringIcNS_11char_traitsIcEENS_9allocatorIcEEEC1B7v160006Ev, symObjAddr: 0xFC8, symBinAddr: 0x1000045EC, symSize: 0x2C }
  - { offsetInCU: 0xA696, offset: 0xA696, size: 0x8, addend: 0x0, symName: __ZNKSt3__19basic_iosIcNS_11char_traitsIcEEEcvbB7v160006Ev, symObjAddr: 0x1050, symBinAddr: 0x100004674, symSize: 0x2C }
  - { offsetInCU: 0xA6BC, offset: 0xA6BC, size: 0x8, addend: 0x0, symName: __ZN6EditorD1Ev, symObjAddr: 0x10B0, symBinAddr: 0x1000046D4, symSize: 0x2C }
  - { offsetInCU: 0xA6E8, offset: 0xA6E8, size: 0x8, addend: 0x0, symName: _main, symObjAddr: 0x10DC, symBinAddr: 0x100004700, symSize: 0x38 }
  - { offsetInCU: 0xA702, offset: 0xA702, size: 0x8, addend: 0x0, symName: __ZNK6Editor11is_at_startEv, symObjAddr: 0x1114, symBinAddr: 0x100004738, symSize: 0x54 }
  - { offsetInCU: 0xA728, offset: 0xA728, size: 0x8, addend: 0x0, symName: __ZNSt3__115__list_iteratorIcPvEmmB7v160006Ev, symObjAddr: 0x1168, symBinAddr: 0x10000478C, symSize: 0x20 }
  - { offsetInCU: 0xA74E, offset: 0xA74E, size: 0x8, addend: 0x0, symName: __ZNSt3__14listIcNS_9allocatorIcEEE3endB7v160006Ev, symObjAddr: 0x11BC, symBinAddr: 0x1000047E0, symSize: 0x2C }
  - { offsetInCU: 0xA774, offset: 0xA774, size: 0x8, addend: 0x0, symName: __ZNKSt3__115__list_iteratorIcPvEdeB7v160006Ev, symObjAddr: 0x11E8, symBinAddr: 0x10000480C, symSize: 0x2C }
  - { offsetInCU: 0xA79A, offset: 0xA79A, size: 0x8, addend: 0x0, symName: __ZNK6Editor14compute_columnEv, symObjAddr: 0x1214, symBinAddr: 0x100004838, symSize: 0xE4 }
  - { offsetInCU: 0xA7DE, offset: 0xA7DE, size: 0x8, addend: 0x0, symName: __ZNSt3__110__list_impIcNS_9allocatorIcEEE3endB7v160006Ev, symObjAddr: 0x1328, symBinAddr: 0x10000494C, symSize: 0x3C }
  - { offsetInCU: 0xA804, offset: 0xA804, size: 0x8, addend: 0x0, symName: __ZNKSt3__110__list_impIcNS_9allocatorIcEEE13__end_as_linkB7v160006Ev, symObjAddr: 0x1364, symBinAddr: 0x100004988, symSize: 0x44 }
  - { offsetInCU: 0xA82A, offset: 0xA82A, size: 0x8, addend: 0x0, symName: __ZNSt3__115__list_iteratorIcPvEC1B7v160006EPNS_16__list_node_baseIcS1_EEPKv, symObjAddr: 0x13A8, symBinAddr: 0x1000049CC, symSize: 0x3C }
  - { offsetInCU: 0xA872, offset: 0xA872, size: 0x8, addend: 0x0, symName: __ZNSt3__126__list_node_pointer_traitsIcPvE26__unsafe_link_pointer_castB7v160006EPNS_16__list_node_baseIcS1_EE, symObjAddr: 0x13E4, symBinAddr: 0x100004A08, symSize: 0x14 }
  - { offsetInCU: 0xA896, offset: 0xA896, size: 0x8, addend: 0x0, symName: __ZNSt3__116__list_node_baseIcPvE6__selfB7v160006Ev, symObjAddr: 0x13F8, symBinAddr: 0x100004A1C, symSize: 0x24 }
  - { offsetInCU: 0xA8C1, offset: 0xA8C1, size: 0x8, addend: 0x0, symName: __ZNSt3__114pointer_traitsIPNS_16__list_node_baseIcPvEEE10pointer_toB7v160006ERS3_, symObjAddr: 0x1428, symBinAddr: 0x100004A4C, symSize: 0x14 }
  - { offsetInCU: 0xA8E4, offset: 0xA8E4, size: 0x8, addend: 0x0, symName: __ZNSt3__115__list_iteratorIcPvEC2B7v160006EPNS_16__list_node_baseIcS1_EEPKv, symObjAddr: 0x143C, symBinAddr: 0x100004A60, symSize: 0x24 }
  - { offsetInCU: 0xA92C, offset: 0xA92C, size: 0x8, addend: 0x0, symName: __ZNSt3__116__list_node_baseIcPvE9__as_nodeB7v160006Ev, symObjAddr: 0x1460, symBinAddr: 0x100004A84, symSize: 0x24 }
  - { offsetInCU: 0xA952, offset: 0xA952, size: 0x8, addend: 0x0, symName: __ZNSt3__115__list_iteratorIcPvEppB7v160006Ev, symObjAddr: 0x1484, symBinAddr: 0x100004AA8, symSize: 0x20 }
  - { offsetInCU: 0xA978, offset: 0xA978, size: 0x8, addend: 0x0, symName: __ZN6Editor14move_to_columnEi, symObjAddr: 0x14A4, symBinAddr: 0x100004AC8, symSize: 0xEC }
  - { offsetInCU: 0xA9AC, offset: 0xA9AC, size: 0x8, addend: 0x0, symName: __ZNSt3__14listIcNS_9allocatorIcEEE5eraseENS_21__list_const_iteratorIcPvEE, symObjAddr: 0x1590, symBinAddr: 0x100004BB4, symSize: 0xA4 }
  - { offsetInCU: 0xAA1F, offset: 0xAA1F, size: 0x8, addend: 0x0, symName: __ZNSt3__121__list_const_iteratorIcPvEC1B7v160006ERKNS_15__list_iteratorIcS1_EE, symObjAddr: 0x1634, symBinAddr: 0x100004C58, symSize: 0x34 }
  - { offsetInCU: 0xAA58, offset: 0xAA58, size: 0x8, addend: 0x0, symName: __ZNSt3__110__list_impIcNS_9allocatorIcEEE12__node_allocB7v160006Ev, symObjAddr: 0x1668, symBinAddr: 0x100004C8C, symSize: 0x28 }
  - { offsetInCU: 0xAA7E, offset: 0xAA7E, size: 0x8, addend: 0x0, symName: __ZNSt3__110__list_impIcNS_9allocatorIcEEE14__unlink_nodesEPNS_16__list_node_baseIcPvEES7_, symObjAddr: 0x1690, symBinAddr: 0x100004CB4, symSize: 0x3C }
  - { offsetInCU: 0xAAB3, offset: 0xAAB3, size: 0x8, addend: 0x0, symName: __ZNSt3__110__list_impIcNS_9allocatorIcEEE4__szB7v160006Ev, symObjAddr: 0x16CC, symBinAddr: 0x100004CF0, symSize: 0x28 }
  - { offsetInCU: 0xAAD9, offset: 0xAAD9, size: 0x8, addend: 0x0, symName: __ZNSt3__116allocator_traitsINS_9allocatorINS_11__list_nodeIcPvEEEEE7destroyB7v160006IcvvEEvRS5_PT_, symObjAddr: 0x16F4, symBinAddr: 0x100004D18, symSize: 0x14 }
  - { offsetInCU: 0xAB14, offset: 0xAB14, size: 0x8, addend: 0x0, symName: __ZNSt3__116allocator_traitsINS_9allocatorINS_11__list_nodeIcPvEEEEE10deallocateB7v160006ERS5_PS4_m, symObjAddr: 0x1708, symBinAddr: 0x100004D2C, symSize: 0x34 }
  - { offsetInCU: 0xAB56, offset: 0xAB56, size: 0x8, addend: 0x0, symName: __ZNSt3__117__compressed_pairImNS_9allocatorINS_11__list_nodeIcPvEEEEE6secondB7v160006Ev, symObjAddr: 0x173C, symBinAddr: 0x100004D60, symSize: 0x24 }
  - { offsetInCU: 0xAB7C, offset: 0xAB7C, size: 0x8, addend: 0x0, symName: __ZNSt3__122__compressed_pair_elemINS_9allocatorINS_11__list_nodeIcPvEEEELi1ELb1EE5__getB7v160006Ev, symObjAddr: 0x1760, symBinAddr: 0x100004D84, symSize: 0x14 }
  - { offsetInCU: 0xABA2, offset: 0xABA2, size: 0x8, addend: 0x0, symName: __ZNSt3__117__compressed_pairImNS_9allocatorINS_11__list_nodeIcPvEEEEE5firstB7v160006Ev, symObjAddr: 0x1774, symBinAddr: 0x100004D98, symSize: 0x24 }
  - { offsetInCU: 0xABC8, offset: 0xABC8, size: 0x8, addend: 0x0, symName: __ZNSt3__122__compressed_pair_elemImLi0ELb0EE5__getB7v160006Ev, symObjAddr: 0x1798, symBinAddr: 0x100004DBC, symSize: 0x14 }
  - { offsetInCU: 0xABEE, offset: 0xABEE, size: 0x8, addend: 0x0, symName: __ZNSt3__19allocatorINS_11__list_nodeIcPvEEE10deallocateB7v160006EPS3_m, symObjAddr: 0x17AC, symBinAddr: 0x100004DD0, symSize: 0x44 }
  - { offsetInCU: 0xAC30, offset: 0xAC30, size: 0x8, addend: 0x0, symName: __ZNSt3__121__list_const_iteratorIcPvEC2B7v160006ERKNS_15__list_iteratorIcS1_EE, symObjAddr: 0x1918, symBinAddr: 0x100004F3C, symSize: 0x24 }
  - { offsetInCU: 0xAC69, offset: 0xAC69, size: 0x8, addend: 0x0, symName: __ZNSt3__14listIcNS_9allocatorIcEEE6insertENS_21__list_const_iteratorIcPvEERKc, symObjAddr: 0x193C, symBinAddr: 0x100004F60, symSize: 0x11C }
  - { offsetInCU: 0xACCD, offset: 0xACCD, size: 0x8, addend: 0x0, symName: __ZNSt3__14listIcNS_9allocatorIcEEE15__allocate_nodeB7v160006ERNS1_INS_11__list_nodeIcPvEEEE, symObjAddr: 0x1A58, symBinAddr: 0x10000507C, symSize: 0x70 }
  - { offsetInCU: 0xAD11, offset: 0xAD11, size: 0x8, addend: 0x0, symName: __ZNSt3__116allocator_traitsINS_9allocatorINS_11__list_nodeIcPvEEEEE9constructB7v160006IcJRKcEvEEvRS5_PT_DpOT0_, symObjAddr: 0x1AC8, symBinAddr: 0x1000050EC, symSize: 0x34 }
  - { offsetInCU: 0xAD68, offset: 0xAD68, size: 0x8, addend: 0x0, symName: __ZNKSt3__110unique_ptrINS_11__list_nodeIcPvEENS_22__allocator_destructorINS_9allocatorIS3_EEEEEptB7v160006Ev, symObjAddr: 0x1AFC, symBinAddr: 0x100005120, symSize: 0x28 }
  - { offsetInCU: 0xAD8E, offset: 0xAD8E, size: 0x8, addend: 0x0, symName: __ZNSt3__14listIcNS_9allocatorIcEEE12__link_nodesEPNS_16__list_node_baseIcPvEES7_S7_, symObjAddr: 0x1B24, symBinAddr: 0x100005148, symSize: 0x50 }
  - { offsetInCU: 0xADD2, offset: 0xADD2, size: 0x8, addend: 0x0, symName: __ZNSt3__111__list_nodeIcPvE9__as_linkB7v160006Ev, symObjAddr: 0x1B74, symBinAddr: 0x100005198, symSize: 0x24 }
  - { offsetInCU: 0xADF8, offset: 0xADF8, size: 0x8, addend: 0x0, symName: __ZNSt3__110unique_ptrINS_11__list_nodeIcPvEENS_22__allocator_destructorINS_9allocatorIS3_EEEEE7releaseB7v160006Ev, symObjAddr: 0x1B98, symBinAddr: 0x1000051BC, symSize: 0x44 }
  - { offsetInCU: 0xAE2D, offset: 0xAE2D, size: 0x8, addend: 0x0, symName: __ZNSt3__110unique_ptrINS_11__list_nodeIcPvEENS_22__allocator_destructorINS_9allocatorIS3_EEEEED1B7v160006Ev, symObjAddr: 0x1BDC, symBinAddr: 0x100005200, symSize: 0x2C }
  - { offsetInCU: 0xAE57, offset: 0xAE57, size: 0x8, addend: 0x0, symName: __ZNSt3__116allocator_traitsINS_9allocatorINS_11__list_nodeIcPvEEEEE8allocateB7v160006ERS5_m, symObjAddr: 0x1C08, symBinAddr: 0x10000522C, symSize: 0x2C }
  - { offsetInCU: 0xAE8A, offset: 0xAE8A, size: 0x8, addend: 0x0, symName: __ZNSt3__122__allocator_destructorINS_9allocatorINS_11__list_nodeIcPvEEEEEC1B7v160006ERS5_m, symObjAddr: 0x1C34, symBinAddr: 0x100005258, symSize: 0x3C }
  - { offsetInCU: 0xAED5, offset: 0xAED5, size: 0x8, addend: 0x0, symName: __ZNSt3__110unique_ptrINS_11__list_nodeIcPvEENS_22__allocator_destructorINS_9allocatorIS3_EEEEEC1B7v160006ILb1EvEEPS3_NS_16__dependent_typeINS_27__unique_ptr_deleter_sfinaeIS7_EEXT_EE20__good_rval_ref_typeE, symObjAddr: 0x1C70, symBinAddr: 0x100005294, symSize: 0x3C }
  - { offsetInCU: 0xAF26, offset: 0xAF26, size: 0x8, addend: 0x0, symName: __ZNSt3__19allocatorINS_11__list_nodeIcPvEEE8allocateB7v160006Em, symObjAddr: 0x1CAC, symBinAddr: 0x1000052D0, symSize: 0x5C }
  - { offsetInCU: 0xAF64, offset: 0xAF64, size: 0x8, addend: 0x0, symName: __ZNSt3__116allocator_traitsINS_9allocatorINS_11__list_nodeIcPvEEEEE8max_sizeB7v160006IS5_vEEmRKS5_, symObjAddr: 0x1D08, symBinAddr: 0x10000532C, symSize: 0x24 }
  - { offsetInCU: 0xAF92, offset: 0xAF92, size: 0x8, addend: 0x0, symName: __ZNKSt3__19allocatorINS_11__list_nodeIcPvEEE8max_sizeB7v160006Ev, symObjAddr: 0x1DC0, symBinAddr: 0x1000053E4, symSize: 0x18 }
  - { offsetInCU: 0xAFB8, offset: 0xAFB8, size: 0x8, addend: 0x0, symName: __ZNSt3__122__allocator_destructorINS_9allocatorINS_11__list_nodeIcPvEEEEEC2B7v160006ERS5_m, symObjAddr: 0x1E28, symBinAddr: 0x10000544C, symSize: 0x2C }
  - { offsetInCU: 0xAFFE, offset: 0xAFFE, size: 0x8, addend: 0x0, symName: __ZNSt3__110unique_ptrINS_11__list_nodeIcPvEENS_22__allocator_destructorINS_9allocatorIS3_EEEEEC2B7v160006ILb1EvEEPS3_NS_16__dependent_typeINS_27__unique_ptr_deleter_sfinaeIS7_EEXT_EE20__good_rval_ref_typeE, symObjAddr: 0x1E54, symBinAddr: 0x100005478, symSize: 0x48 }
  - { offsetInCU: 0xB04F, offset: 0xB04F, size: 0x8, addend: 0x0, symName: __ZNSt3__117__compressed_pairIPNS_11__list_nodeIcPvEENS_22__allocator_destructorINS_9allocatorIS3_EEEEEC1B7v160006IRS4_S8_EEOT_OT0_, symObjAddr: 0x1E9C, symBinAddr: 0x1000054C0, symSize: 0x3C }
  - { offsetInCU: 0xB0A7, offset: 0xB0A7, size: 0x8, addend: 0x0, symName: __ZNSt3__117__compressed_pairIPNS_11__list_nodeIcPvEENS_22__allocator_destructorINS_9allocatorIS3_EEEEEC2B7v160006IRS4_S8_EEOT_OT0_, symObjAddr: 0x1ED8, symBinAddr: 0x1000054FC, symSize: 0x48 }
  - { offsetInCU: 0xB0FF, offset: 0xB0FF, size: 0x8, addend: 0x0, symName: __ZNSt3__122__compressed_pair_elemIPNS_11__list_nodeIcPvEELi0ELb0EEC2B7v160006IRS4_vEEOT_, symObjAddr: 0x1F20, symBinAddr: 0x100005544, symSize: 0x24 }
  - { offsetInCU: 0xB141, offset: 0xB141, size: 0x8, addend: 0x0, symName: __ZNSt3__122__compressed_pair_elemINS_22__allocator_destructorINS_9allocatorINS_11__list_nodeIcPvEEEEEELi1ELb0EEC2B7v160006IS7_vEEOT_, symObjAddr: 0x1F44, symBinAddr: 0x100005568, symSize: 0x24 }
  - { offsetInCU: 0xB183, offset: 0xB183, size: 0x8, addend: 0x0, symName: __ZNSt3__19allocatorINS_11__list_nodeIcPvEEE9constructB7v160006IcJRKcEEEvPT_DpOT0_, symObjAddr: 0x1F68, symBinAddr: 0x10000558C, symSize: 0x28 }
  - { offsetInCU: 0xB1D9, offset: 0xB1D9, size: 0x8, addend: 0x0, symName: __ZNKSt3__117__compressed_pairIPNS_11__list_nodeIcPvEENS_22__allocator_destructorINS_9allocatorIS3_EEEEE5firstB7v160006Ev, symObjAddr: 0x1F90, symBinAddr: 0x1000055B4, symSize: 0x24 }
  - { offsetInCU: 0xB1FF, offset: 0xB1FF, size: 0x8, addend: 0x0, symName: __ZNKSt3__122__compressed_pair_elemIPNS_11__list_nodeIcPvEELi0ELb0EE5__getB7v160006Ev, symObjAddr: 0x1FB4, symBinAddr: 0x1000055D8, symSize: 0x14 }
  - { offsetInCU: 0xB225, offset: 0xB225, size: 0x8, addend: 0x0, symName: __ZNSt3__117__compressed_pairIPNS_11__list_nodeIcPvEENS_22__allocator_destructorINS_9allocatorIS3_EEEEE5firstB7v160006Ev, symObjAddr: 0x1FC8, symBinAddr: 0x1000055EC, symSize: 0x24 }
  - { offsetInCU: 0xB24B, offset: 0xB24B, size: 0x8, addend: 0x0, symName: __ZNSt3__122__compressed_pair_elemIPNS_11__list_nodeIcPvEELi0ELb0EE5__getB7v160006Ev, symObjAddr: 0x1FEC, symBinAddr: 0x100005610, symSize: 0x14 }
  - { offsetInCU: 0xB271, offset: 0xB271, size: 0x8, addend: 0x0, symName: __ZNSt3__110unique_ptrINS_11__list_nodeIcPvEENS_22__allocator_destructorINS_9allocatorIS3_EEEEED2B7v160006Ev, symObjAddr: 0x2000, symBinAddr: 0x100005624, symSize: 0x30 }
  - { offsetInCU: 0xB29B, offset: 0xB29B, size: 0x8, addend: 0x0, symName: __ZNSt3__110unique_ptrINS_11__list_nodeIcPvEENS_22__allocator_destructorINS_9allocatorIS3_EEEEE5resetB7v160006EPS3_, symObjAddr: 0x2030, symBinAddr: 0x100005654, symSize: 0x78 }
  - { offsetInCU: 0xB2DF, offset: 0xB2DF, size: 0x8, addend: 0x0, symName: __ZNSt3__117__compressed_pairIPNS_11__list_nodeIcPvEENS_22__allocator_destructorINS_9allocatorIS3_EEEEE6secondB7v160006Ev, symObjAddr: 0x20A8, symBinAddr: 0x1000056CC, symSize: 0x28 }
  - { offsetInCU: 0xB305, offset: 0xB305, size: 0x8, addend: 0x0, symName: __ZNSt3__122__allocator_destructorINS_9allocatorINS_11__list_nodeIcPvEEEEEclB7v160006EPS4_, symObjAddr: 0x20D0, symBinAddr: 0x1000056F4, symSize: 0x34 }
  - { offsetInCU: 0xB339, offset: 0xB339, size: 0x8, addend: 0x0, symName: __ZNSt3__122__compressed_pair_elemINS_22__allocator_destructorINS_9allocatorINS_11__list_nodeIcPvEEEEEELi1ELb0EE5__getB7v160006Ev, symObjAddr: 0x2104, symBinAddr: 0x100005728, symSize: 0x14 }
  - { offsetInCU: 0xB35F, offset: 0xB35F, size: 0x8, addend: 0x0, symName: __ZN6EditorC2Ev, symObjAddr: 0x2118, symBinAddr: 0x10000573C, symSize: 0xE4 }
  - { offsetInCU: 0xB389, offset: 0xB389, size: 0x8, addend: 0x0, symName: __ZNSt3__14listIcNS_9allocatorIcEEEC1B7v160006Ev, symObjAddr: 0x21FC, symBinAddr: 0x100005820, symSize: 0x2C }
  - { offsetInCU: 0xB3B3, offset: 0xB3B3, size: 0x8, addend: 0x0, symName: __ZNSt3__115__list_iteratorIcPvEC1B7v160006Ev, symObjAddr: 0x2228, symBinAddr: 0x10000584C, symSize: 0x2C }
  - { offsetInCU: 0xB3DD, offset: 0xB3DD, size: 0x8, addend: 0x0, symName: __ZNSt3__14listIcNS_9allocatorIcEEE9push_backEOc, symObjAddr: 0x2254, symBinAddr: 0x100005878, symSize: 0xF0 }
  - { offsetInCU: 0xB432, offset: 0xB432, size: 0x8, addend: 0x0, symName: __ZNSt3__14listIcNS_9allocatorIcEEE5beginB7v160006Ev, symObjAddr: 0x2344, symBinAddr: 0x100005968, symSize: 0x2C }
  - { offsetInCU: 0xB458, offset: 0xB458, size: 0x8, addend: 0x0, symName: __ZNSt3__14listIcNS_9allocatorIcEEE10push_frontEOc, symObjAddr: 0x2370, symBinAddr: 0x100005994, symSize: 0xF0 }
  - { offsetInCU: 0xB4AD, offset: 0xB4AD, size: 0x8, addend: 0x0, symName: __ZNSt3__14listIcNS_9allocatorIcEEED1Ev, symObjAddr: 0x2460, symBinAddr: 0x100005A84, symSize: 0x2C }
  - { offsetInCU: 0xB4DA, offset: 0xB4DA, size: 0x8, addend: 0x0, symName: __ZNSt3__14listIcNS_9allocatorIcEEEC2B7v160006Ev, symObjAddr: 0x248C, symBinAddr: 0x100005AB0, symSize: 0x3C }
  - { offsetInCU: 0xB504, offset: 0xB504, size: 0x8, addend: 0x0, symName: __ZNSt3__110__list_impIcNS_9allocatorIcEEEC2Ev, symObjAddr: 0x24C8, symBinAddr: 0x100005AEC, symSize: 0x50 }
  - { offsetInCU: 0xB530, offset: 0xB530, size: 0x8, addend: 0x0, symName: __ZNSt3__116__list_node_baseIcPvEC1B7v160006Ev, symObjAddr: 0x2528, symBinAddr: 0x100005B4C, symSize: 0x2C }
  - { offsetInCU: 0xB564, offset: 0xB564, size: 0x8, addend: 0x0, symName: __ZNSt3__117__compressed_pairImNS_9allocatorINS_11__list_nodeIcPvEEEEEC1B7v160006IiNS_18__default_init_tagEEEOT_OT0_, symObjAddr: 0x2554, symBinAddr: 0x100005B78, symSize: 0x3C }
  - { offsetInCU: 0xB5BC, offset: 0xB5BC, size: 0x8, addend: 0x0, symName: __ZNSt3__116__list_node_baseIcPvEC2B7v160006Ev, symObjAddr: 0x2590, symBinAddr: 0x100005BB4, symSize: 0x4C }
  - { offsetInCU: 0xB5E6, offset: 0xB5E6, size: 0x8, addend: 0x0, symName: __ZNSt3__117__compressed_pairImNS_9allocatorINS_11__list_nodeIcPvEEEEEC2B7v160006IiNS_18__default_init_tagEEEOT_OT0_, symObjAddr: 0x25DC, symBinAddr: 0x100005C00, symSize: 0x40 }
  - { offsetInCU: 0xB63E, offset: 0xB63E, size: 0x8, addend: 0x0, symName: __ZNSt3__122__compressed_pair_elemImLi0ELb0EEC2B7v160006IivEEOT_, symObjAddr: 0x261C, symBinAddr: 0x100005C40, symSize: 0x24 }
  - { offsetInCU: 0xB680, offset: 0xB680, size: 0x8, addend: 0x0, symName: __ZNSt3__122__compressed_pair_elemINS_9allocatorINS_11__list_nodeIcPvEEEELi1ELb1EEC2B7v160006ENS_18__default_init_tagE, symObjAddr: 0x2640, symBinAddr: 0x100005C64, symSize: 0x2C }
  - { offsetInCU: 0xB6B5, offset: 0xB6B5, size: 0x8, addend: 0x0, symName: __ZNSt3__19allocatorINS_11__list_nodeIcPvEEEC2B7v160006Ev, symObjAddr: 0x266C, symBinAddr: 0x100005C90, symSize: 0x2C }
  - { offsetInCU: 0xB6DF, offset: 0xB6DF, size: 0x8, addend: 0x0, symName: __ZNSt3__116__non_trivial_ifILb1ENS_9allocatorINS_11__list_nodeIcPvEEEEEC2B7v160006Ev, symObjAddr: 0x2698, symBinAddr: 0x100005CBC, symSize: 0x14 }
  - { offsetInCU: 0xB709, offset: 0xB709, size: 0x8, addend: 0x0, symName: __ZNSt3__115__list_iteratorIcPvEC2B7v160006Ev, symObjAddr: 0x26AC, symBinAddr: 0x100005CD0, symSize: 0x38 }
  - { offsetInCU: 0xB738, offset: 0xB738, size: 0x8, addend: 0x0, symName: __ZNSt3__116allocator_traitsINS_9allocatorINS_11__list_nodeIcPvEEEEE9constructB7v160006IcJcEvEEvRS5_PT_DpOT0_, symObjAddr: 0x26F4, symBinAddr: 0x100005D18, symSize: 0x34 }
  - { offsetInCU: 0xB78F, offset: 0xB78F, size: 0x8, addend: 0x0, symName: __ZNSt3__14listIcNS_9allocatorIcEEE20__link_nodes_at_backEPNS_16__list_node_baseIcPvEES7_, symObjAddr: 0x2728, symBinAddr: 0x100005D4C, symSize: 0x60 }
  - { offsetInCU: 0xB7D5, offset: 0xB7D5, size: 0x8, addend: 0x0, symName: __ZNKSt3__110unique_ptrINS_11__list_nodeIcPvEENS_22__allocator_destructorINS_9allocatorIS3_EEEEE3getB7v160006Ev, symObjAddr: 0x2788, symBinAddr: 0x100005DAC, symSize: 0x28 }
  - { offsetInCU: 0xB7FB, offset: 0xB7FB, size: 0x8, addend: 0x0, symName: __ZNSt3__19allocatorINS_11__list_nodeIcPvEEE9constructB7v160006IcJcEEEvPT_DpOT0_, symObjAddr: 0x27B0, symBinAddr: 0x100005DD4, symSize: 0x28 }
  - { offsetInCU: 0xB851, offset: 0xB851, size: 0x8, addend: 0x0, symName: __ZNSt3__110__list_impIcNS_9allocatorIcEEE5beginB7v160006Ev, symObjAddr: 0x27D8, symBinAddr: 0x100005DFC, symSize: 0x30 }
  - { offsetInCU: 0xB877, offset: 0xB877, size: 0x8, addend: 0x0, symName: __ZNSt3__14listIcNS_9allocatorIcEEE21__link_nodes_at_frontEPNS_16__list_node_baseIcPvEES7_, symObjAddr: 0x2808, symBinAddr: 0x100005E2C, symSize: 0x60 }
  - { offsetInCU: 0xB8BD, offset: 0xB8BD, size: 0x8, addend: 0x0, symName: __ZNSt3__14listIcNS_9allocatorIcEEED2Ev, symObjAddr: 0x2868, symBinAddr: 0x100005E8C, symSize: 0x2C }
  - { offsetInCU: 0xB8EA, offset: 0xB8EA, size: 0x8, addend: 0x0, symName: __ZNSt3__110__list_impIcNS_9allocatorIcEEED2Ev, symObjAddr: 0x2894, symBinAddr: 0x100005EB8, symSize: 0x3C }
  - { offsetInCU: 0xB916, offset: 0xB916, size: 0x8, addend: 0x0, symName: __ZNSt3__110__list_impIcNS_9allocatorIcEEE5clearEv, symObjAddr: 0x28D0, symBinAddr: 0x100005EF4, symSize: 0xDC }
  - { offsetInCU: 0xB98E, offset: 0xB98E, size: 0x8, addend: 0x0, symName: __ZNKSt3__110__list_impIcNS_9allocatorIcEEE5emptyB7v160006Ev, symObjAddr: 0x29BC, symBinAddr: 0x100005FE0, symSize: 0x34 }
  - { offsetInCU: 0xB9B4, offset: 0xB9B4, size: 0x8, addend: 0x0, symName: __ZNKSt3__110__list_impIcNS_9allocatorIcEEE4__szB7v160006Ev, symObjAddr: 0x2A00, symBinAddr: 0x100006024, symSize: 0x28 }
  - { offsetInCU: 0xB9DA, offset: 0xB9DA, size: 0x8, addend: 0x0, symName: __ZNKSt3__117__compressed_pairImNS_9allocatorINS_11__list_nodeIcPvEEEEE5firstB7v160006Ev, symObjAddr: 0x2A28, symBinAddr: 0x10000604C, symSize: 0x24 }
  - { offsetInCU: 0xBA00, offset: 0xBA00, size: 0x8, addend: 0x0, symName: __ZNKSt3__122__compressed_pair_elemImLi0ELb0EE5__getB7v160006Ev, symObjAddr: 0x2A4C, symBinAddr: 0x100006070, symSize: 0x14 }
  - { offsetInCU: 0xBA26, offset: 0xBA26, size: 0x8, addend: 0x0, symName: __ZN6EditorD2Ev, symObjAddr: 0x2A60, symBinAddr: 0x100006084, symSize: 0x2C }
  - { offsetInCU: 0xBA52, offset: 0xBA52, size: 0x8, addend: 0x0, symName: __ZNSt3__112basic_stringIcNS_11char_traitsIcEENS_9allocatorIcEEEC2B7v160006Ev, symObjAddr: 0x2A8C, symBinAddr: 0x1000060B0, symSize: 0x54 }
  - { offsetInCU: 0xBA7C, offset: 0xBA7C, size: 0x8, addend: 0x0, symName: __ZNSt3__117__compressed_pairINS_12basic_stringIcNS_11char_traitsIcEENS_9allocatorIcEEE5__repES5_EC1B7v160006INS_18__default_init_tagESA_EEOT_OT0_, symObjAddr: 0x2AE0, symBinAddr: 0x100006104, symSize: 0x3C }
  - { offsetInCU: 0xBAD4, offset: 0xBAD4, size: 0x8, addend: 0x0, symName: __ZNSt3__112basic_stringIcNS_11char_traitsIcEENS_9allocatorIcEEE14__default_initB7v160006Ev, symObjAddr: 0x2B2C, symBinAddr: 0x100006150, symSize: 0x40 }
  - { offsetInCU: 0xBAFA, offset: 0xBAFA, size: 0x8, addend: 0x0, symName: __ZNSt3__117__compressed_pairINS_12basic_stringIcNS_11char_traitsIcEENS_9allocatorIcEEE5__repES5_EC2B7v160006INS_18__default_init_tagESA_EEOT_OT0_, symObjAddr: 0x2B6C, symBinAddr: 0x100006190, symSize: 0x3C }
  - { offsetInCU: 0xBB52, offset: 0xBB52, size: 0x8, addend: 0x0, symName: __ZNSt3__122__compressed_pair_elemINS_12basic_stringIcNS_11char_traitsIcEENS_9allocatorIcEEE5__repELi0ELb0EEC2B7v160006ENS_18__default_init_tagE, symObjAddr: 0x2BA8, symBinAddr: 0x1000061CC, symSize: 0x14 }
  - { offsetInCU: 0xBB87, offset: 0xBB87, size: 0x8, addend: 0x0, symName: __ZNSt3__122__compressed_pair_elemINS_9allocatorIcEELi1ELb1EEC2B7v160006ENS_18__default_init_tagE, symObjAddr: 0x2BBC, symBinAddr: 0x1000061E0, symSize: 0x2C }
  - { offsetInCU: 0xBBBC, offset: 0xBBBC, size: 0x8, addend: 0x0, symName: __ZNSt3__19allocatorIcEC2B7v160006Ev, symObjAddr: 0x2BE8, symBinAddr: 0x10000620C, symSize: 0x2C }
  - { offsetInCU: 0xBBE6, offset: 0xBBE6, size: 0x8, addend: 0x0, symName: __ZNSt3__116__non_trivial_ifILb1ENS_9allocatorIcEEEC2B7v160006Ev, symObjAddr: 0x2C14, symBinAddr: 0x100006238, symSize: 0x14 }
  - { offsetInCU: 0xBC10, offset: 0xBC10, size: 0x8, addend: 0x0, symName: __ZNSt3__117__compressed_pairINS_12basic_stringIcNS_11char_traitsIcEENS_9allocatorIcEEE5__repES5_E5firstB7v160006Ev, symObjAddr: 0x2C28, symBinAddr: 0x10000624C, symSize: 0x24 }
  - { offsetInCU: 0xBC36, offset: 0xBC36, size: 0x8, addend: 0x0, symName: __ZNSt3__122__compressed_pair_elemINS_12basic_stringIcNS_11char_traitsIcEENS_9allocatorIcEEE5__repELi0ELb0EE5__getB7v160006Ev, symObjAddr: 0x2C4C, symBinAddr: 0x100006270, symSize: 0x14 }
  - { offsetInCU: 0xBC5C, offset: 0xBC5C, size: 0x8, addend: 0x0, symName: __ZNSt3__111char_traitsIcE6lengthEPKc, symObjAddr: 0x2E4C, symBinAddr: 0x100006470, symSize: 0x34 }
  - { offsetInCU: 0xBC9D, offset: 0xBC9D, size: 0x8, addend: 0x0, symName: __ZNKSt3__113basic_ostreamIcNS_11char_traitsIcEEE6sentrycvbB7v160006Ev, symObjAddr: 0x2E80, symBinAddr: 0x1000064A4, symSize: 0x1C }
  - { offsetInCU: 0xBCC3, offset: 0xBCC3, size: 0x8, addend: 0x0, symName: __ZNSt3__119ostreambuf_iteratorIcNS_11char_traitsIcEEEC1B7v160006ERNS_13basic_ostreamIcS2_EE, symObjAddr: 0x30DC, symBinAddr: 0x100006700, symSize: 0x34 }
  - { offsetInCU: 0xBCFB, offset: 0xBCFB, size: 0x8, addend: 0x0, symName: __ZNKSt3__18ios_base5flagsB7v160006Ev, symObjAddr: 0x3110, symBinAddr: 0x100006734, symSize: 0x18 }
  - { offsetInCU: 0xBD23, offset: 0xBD23, size: 0x8, addend: 0x0, symName: __ZNKSt3__19basic_iosIcNS_11char_traitsIcEEE4fillB7v160006Ev, symObjAddr: 0x3128, symBinAddr: 0x10000674C, symSize: 0x64 }
  - { offsetInCU: 0xBD4B, offset: 0xBD4B, size: 0x8, addend: 0x0, symName: __ZNKSt3__119ostreambuf_iteratorIcNS_11char_traitsIcEEE6failedB7v160006Ev, symObjAddr: 0x318C, symBinAddr: 0x1000067B0, symSize: 0x24 }
  - { offsetInCU: 0xBD71, offset: 0xBD71, size: 0x8, addend: 0x0, symName: __ZNSt3__19basic_iosIcNS_11char_traitsIcEEE8setstateB7v160006Ej, symObjAddr: 0x31B0, symBinAddr: 0x1000067D4, symSize: 0x2C }
  - { offsetInCU: 0xBDA6, offset: 0xBDA6, size: 0x8, addend: 0x0, symName: __ZNKSt3__18ios_base5widthB7v160006Ev, symObjAddr: 0x31DC, symBinAddr: 0x100006800, symSize: 0x18 }
  - { offsetInCU: 0xBDCE, offset: 0xBDCE, size: 0x8, addend: 0x0, symName: __ZNSt3__115basic_streambufIcNS_11char_traitsIcEEE5sputnB7v160006EPKcl, symObjAddr: 0x31F4, symBinAddr: 0x100006818, symSize: 0x3C }
  - { offsetInCU: 0xBE10, offset: 0xBE10, size: 0x8, addend: 0x0, symName: __ZNSt3__112basic_stringIcNS_11char_traitsIcEENS_9allocatorIcEEEC1B7v160006Emc, symObjAddr: 0x3230, symBinAddr: 0x100006854, symSize: 0x3C }
  - { offsetInCU: 0xBE58, offset: 0xBE58, size: 0x8, addend: 0x0, symName: __ZNSt3__112basic_stringIcNS_11char_traitsIcEENS_9allocatorIcEEE4dataB7v160006Ev, symObjAddr: 0x326C, symBinAddr: 0x100006890, symSize: 0x28 }
  - { offsetInCU: 0xBE7E, offset: 0xBE7E, size: 0x8, addend: 0x0, symName: __ZNSt3__18ios_base5widthB7v160006El, symObjAddr: 0x3294, symBinAddr: 0x1000068B8, symSize: 0x2C }
  - { offsetInCU: 0xBEC4, offset: 0xBEC4, size: 0x8, addend: 0x0, symName: __ZNSt3__112basic_stringIcNS_11char_traitsIcEENS_9allocatorIcEEEC2B7v160006Emc, symObjAddr: 0x32C0, symBinAddr: 0x1000068E4, symSize: 0x54 }
  - { offsetInCU: 0xBF0C, offset: 0xBF0C, size: 0x8, addend: 0x0, symName: __ZNSt3__112basic_stringIcNS_11char_traitsIcEENS_9allocatorIcEEE13__get_pointerB7v160006Ev, symObjAddr: 0x3328, symBinAddr: 0x10000694C, symSize: 0x54 }
  - { offsetInCU: 0xBF32, offset: 0xBF32, size: 0x8, addend: 0x0, symName: __ZNKSt3__112basic_stringIcNS_11char_traitsIcEENS_9allocatorIcEEE9__is_longB7v160006Ev, symObjAddr: 0x337C, symBinAddr: 0x1000069A0, symSize: 0x38 }
  - { offsetInCU: 0xBF58, offset: 0xBF58, size: 0x8, addend: 0x0, symName: __ZNSt3__112basic_stringIcNS_11char_traitsIcEENS_9allocatorIcEEE18__get_long_pointerB7v160006Ev, symObjAddr: 0x33B4, symBinAddr: 0x1000069D8, symSize: 0x28 }
  - { offsetInCU: 0xBF7E, offset: 0xBF7E, size: 0x8, addend: 0x0, symName: __ZNSt3__112basic_stringIcNS_11char_traitsIcEENS_9allocatorIcEEE19__get_short_pointerB7v160006Ev, symObjAddr: 0x33DC, symBinAddr: 0x100006A00, symSize: 0x28 }
  - { offsetInCU: 0xBFA4, offset: 0xBFA4, size: 0x8, addend: 0x0, symName: __ZNKSt3__117__compressed_pairINS_12basic_stringIcNS_11char_traitsIcEENS_9allocatorIcEEE5__repES5_E5firstB7v160006Ev, symObjAddr: 0x3404, symBinAddr: 0x100006A28, symSize: 0x24 }
  - { offsetInCU: 0xBFCA, offset: 0xBFCA, size: 0x8, addend: 0x0, symName: __ZNKSt3__122__compressed_pair_elemINS_12basic_stringIcNS_11char_traitsIcEENS_9allocatorIcEEE5__repELi0ELb0EE5__getB7v160006Ev, symObjAddr: 0x3428, symBinAddr: 0x100006A4C, symSize: 0x14 }
  - { offsetInCU: 0xBFF0, offset: 0xBFF0, size: 0x8, addend: 0x0, symName: __ZNSt3__114pointer_traitsIPcE10pointer_toB7v160006ERc, symObjAddr: 0x343C, symBinAddr: 0x100006A60, symSize: 0x14 }
  - { offsetInCU: 0xC013, offset: 0xC013, size: 0x8, addend: 0x0, symName: __ZNSt3__119ostreambuf_iteratorIcNS_11char_traitsIcEEEC2B7v160006ERNS_13basic_ostreamIcS2_EE, symObjAddr: 0x3450, symBinAddr: 0x100006A74, symSize: 0x54 }
  - { offsetInCU: 0xC04B, offset: 0xC04B, size: 0x8, addend: 0x0, symName: __ZNKSt3__19basic_iosIcNS_11char_traitsIcEEE5rdbufB7v160006Ev, symObjAddr: 0x34A4, symBinAddr: 0x100006AC8, symSize: 0x24 }
  - { offsetInCU: 0xC073, offset: 0xC073, size: 0x8, addend: 0x0, symName: __ZNKSt3__18ios_base5rdbufB7v160006Ev, symObjAddr: 0x34C8, symBinAddr: 0x100006AEC, symSize: 0x18 }
  - { offsetInCU: 0xC099, offset: 0xC099, size: 0x8, addend: 0x0, symName: __ZNSt3__111char_traitsIcE11eq_int_typeEii, symObjAddr: 0x34E0, symBinAddr: 0x100006B04, symSize: 0x28 }
  - { offsetInCU: 0xC0CA, offset: 0xC0CA, size: 0x8, addend: 0x0, symName: __ZNSt3__111char_traitsIcE3eofEv, symObjAddr: 0x3508, symBinAddr: 0x100006B2C, symSize: 0x8 }
  - { offsetInCU: 0xC0DE, offset: 0xC0DE, size: 0x8, addend: 0x0, symName: __ZNKSt3__19basic_iosIcNS_11char_traitsIcEEE5widenB7v160006Ec, symObjAddr: 0x3510, symBinAddr: 0x100006B34, symSize: 0x84 }
  - { offsetInCU: 0xC14C, offset: 0xC14C, size: 0x8, addend: 0x0, symName: __ZNKSt3__15ctypeIcE5widenB7v160006Ec, symObjAddr: 0x35C0, symBinAddr: 0x100006BE4, symSize: 0x38 }
  - { offsetInCU: 0xC181, offset: 0xC181, size: 0x8, addend: 0x0, symName: __ZNSt3__18ios_base8setstateB7v160006Ej, symObjAddr: 0x35F8, symBinAddr: 0x100006C1C, symSize: 0x34 }
  - { offsetInCU: 0xC1B8, offset: 0xC1B8, size: 0x8, addend: 0x0, symName: __ZNKSt3__112basic_stringIcNS_11char_traitsIcEENS_9allocatorIcEEE15__get_long_sizeB7v160006Ev, symObjAddr: 0x3650, symBinAddr: 0x100006C74, symSize: 0x28 }
  - { offsetInCU: 0xC1DE, offset: 0xC1DE, size: 0x8, addend: 0x0, symName: __ZNKSt3__112basic_stringIcNS_11char_traitsIcEENS_9allocatorIcEEE16__get_short_sizeB7v160006Ev, symObjAddr: 0x3678, symBinAddr: 0x100006C9C, symSize: 0x34 }
  - { offsetInCU: 0xC291, offset: 0xC291, size: 0x8, addend: 0x0, symName: __ZNKSt3__113basic_istreamIcNS_11char_traitsIcEEE6sentrycvbB7v160006Ev, symObjAddr: 0x38E4, symBinAddr: 0x100006F08, symSize: 0x1C }
  - { offsetInCU: 0xC2B7, offset: 0xC2B7, size: 0x8, addend: 0x0, symName: __ZNSt3__112basic_stringIcNS_11char_traitsIcEENS_9allocatorIcEEE5clearB7v160006Ev, symObjAddr: 0x3900, symBinAddr: 0x100006F24, symSize: 0x88 }
  - { offsetInCU: 0xC2DF, offset: 0xC2DF, size: 0x8, addend: 0x0, symName: __ZNSt3__115basic_streambufIcNS_11char_traitsIcEEE6sbumpcB7v160006Ev, symObjAddr: 0x3988, symBinAddr: 0x100006FAC, symSize: 0x78 }
  - { offsetInCU: 0xC305, offset: 0xC305, size: 0x8, addend: 0x0, symName: __ZNSt3__111char_traitsIcE12to_char_typeEi, symObjAddr: 0x3A00, symBinAddr: 0x100007024, symSize: 0x18 }
  - { offsetInCU: 0xC328, offset: 0xC328, size: 0x8, addend: 0x0, symName: __ZNSt3__111char_traitsIcE2eqEcc, symObjAddr: 0x3A18, symBinAddr: 0x10000703C, symSize: 0x28 }
  - { offsetInCU: 0xC359, offset: 0xC359, size: 0x8, addend: 0x0, symName: __ZNKSt3__112basic_stringIcNS_11char_traitsIcEENS_9allocatorIcEEE8max_sizeB7v160006Ev, symObjAddr: 0x3A40, symBinAddr: 0x100007064, symSize: 0xAC }
  - { offsetInCU: 0xC3AB, offset: 0xC3AB, size: 0x8, addend: 0x0, symName: __ZNSt3__18ios_base18__setstate_nothrowB7v160006Ej, symObjAddr: 0x3AEC, symBinAddr: 0x100007110, symSize: 0x64 }
  - { offsetInCU: 0xC3E0, offset: 0xC3E0, size: 0x8, addend: 0x0, symName: __ZNKSt3__19basic_iosIcNS_11char_traitsIcEEE10exceptionsB7v160006Ev, symObjAddr: 0x3B50, symBinAddr: 0x100007174, symSize: 0x24 }
  - { offsetInCU: 0xC406, offset: 0xC406, size: 0x8, addend: 0x0, symName: __ZNSt3__111char_traitsIcE6assignERcRKc, symObjAddr: 0x3B84, symBinAddr: 0x1000071A8, symSize: 0x24 }
  - { offsetInCU: 0xC437, offset: 0xC437, size: 0x8, addend: 0x0, symName: __ZNSt3__112basic_stringIcNS_11char_traitsIcEENS_9allocatorIcEEE15__set_long_sizeB7v160006Em, symObjAddr: 0x3BA8, symBinAddr: 0x1000071CC, symSize: 0x38 }
  - { offsetInCU: 0xC46C, offset: 0xC46C, size: 0x8, addend: 0x0, symName: __ZNSt3__112basic_stringIcNS_11char_traitsIcEENS_9allocatorIcEEE16__set_short_sizeB7v160006Em, symObjAddr: 0x3BE0, symBinAddr: 0x100007204, symSize: 0x78 }
  - { offsetInCU: 0xC4A1, offset: 0xC4A1, size: 0x8, addend: 0x0, symName: __ZNSt3__111char_traitsIcE11to_int_typeEc, symObjAddr: 0x3C58, symBinAddr: 0x10000727C, symSize: 0x14 }
  - { offsetInCU: 0xC4CE, offset: 0xC4CE, size: 0x8, addend: 0x0, symName: __ZNSt3__116allocator_traitsINS_9allocatorIcEEE8max_sizeB7v160006IS2_vEEmRKS2_, symObjAddr: 0x3C6C, symBinAddr: 0x100007290, symSize: 0x24 }
  - { offsetInCU: 0xC4FC, offset: 0xC4FC, size: 0x8, addend: 0x0, symName: __ZNKSt3__112basic_stringIcNS_11char_traitsIcEENS_9allocatorIcEEE7__allocB7v160006Ev, symObjAddr: 0x3C90, symBinAddr: 0x1000072B4, symSize: 0x24 }
  - { offsetInCU: 0xC522, offset: 0xC522, size: 0x8, addend: 0x0, symName: __ZNSt3__114numeric_limitsImE3maxB7v160006Ev, symObjAddr: 0x3CB4, symBinAddr: 0x1000072D8, symSize: 0x14 }
  - { offsetInCU: 0xC536, offset: 0xC536, size: 0x8, addend: 0x0, symName: __ZNKSt3__19allocatorIcE8max_sizeB7v160006Ev, symObjAddr: 0x3CC8, symBinAddr: 0x1000072EC, symSize: 0x14 }
  - { offsetInCU: 0xC55C, offset: 0xC55C, size: 0x8, addend: 0x0, symName: __ZNKSt3__117__compressed_pairINS_12basic_stringIcNS_11char_traitsIcEENS_9allocatorIcEEE5__repES5_E6secondB7v160006Ev, symObjAddr: 0x3CDC, symBinAddr: 0x100007300, symSize: 0x24 }
  - { offsetInCU: 0xC582, offset: 0xC582, size: 0x8, addend: 0x0, symName: __ZNKSt3__122__compressed_pair_elemINS_9allocatorIcEELi1ELb1EE5__getB7v160006Ev, symObjAddr: 0x3D00, symBinAddr: 0x100007324, symSize: 0x14 }
  - { offsetInCU: 0xC5A8, offset: 0xC5A8, size: 0x8, addend: 0x0, symName: __ZNSt3__123__libcpp_numeric_limitsImLb1EE3maxB7v160006Ev, symObjAddr: 0x3D14, symBinAddr: 0x100007338, symSize: 0x8 }
  - { offsetInCU: 0xC5BC, offset: 0xC5BC, size: 0x8, addend: 0x0, symName: __ZNKSt3__18ios_base10exceptionsB7v160006Ev, symObjAddr: 0x3D1C, symBinAddr: 0x100007340, symSize: 0x18 }
  - { offsetInCU: 0xC5E4, offset: 0xC5E4, size: 0x8, addend: 0x0, symName: __ZNKSt3__19basic_iosIcNS_11char_traitsIcEEE4failB7v160006Ev, symObjAddr: 0x3DE0, symBinAddr: 0x100007404, symSize: 0x28 }
  - { offsetInCU: 0xC60A, offset: 0xC60A, size: 0x8, addend: 0x0, symName: __ZNKSt3__18ios_base4failB7v160006Ev, symObjAddr: 0x3E08, symBinAddr: 0x10000742C, symSize: 0x28 }
...
